; ModuleID = 'bench/linux/original/acpi_lpss.ll'
source_filename = "bench/linux/original/acpi_lpss.ll"
target datalayout = "e-m:e-p270:32:32-p271:32:32-p272:64:64-i64:64-i128:128-f80:128-n8:16:32:64-S128"
target triple = "x86_64-unknown-linux-gnu"

%struct.acpi_scan_handler = type { ptr, %struct.list_head, ptr, ptr, ptr, ptr, ptr, %struct.acpi_hotplug_profile }
%struct.list_head = type { ptr, ptr }
%struct.acpi_hotplug_profile = type { %struct.kobject, ptr, ptr, i8 }
%struct.kobject = type { ptr, %struct.list_head, ptr, ptr, ptr, ptr, %struct.kref, i8 }
%struct.kref = type { %struct.refcount_struct }
%struct.refcount_struct = type { %struct.atomic_t }
%struct.atomic_t = type { i32 }
%struct.acpi_device_id = type { [16 x i8], i64, i32, i32 }

@lpss_handler = internal global %struct.acpi_scan_handler { ptr @acpi_lpss_device_ids, %struct.list_head zeroinitializer, ptr null, ptr null, ptr null, ptr null, ptr null, %struct.acpi_hotplug_profile zeroinitializer }, align 8
@acpi_lpss_device_ids = internal constant [29 x %struct.acpi_device_id] [%struct.acpi_device_id { [16 x i8] c"INTL9C60\00\00\00\00\00\00\00\00", i64 0, i32 0, i32 0 }, %struct.acpi_device_id { [16 x i8] c"INT33C0\00\00\00\00\00\00\00\00\00", i64 0, i32 0, i32 0 }, %struct.acpi_device_id { [16 x i8] c"INT33C1\00\00\00\00\00\00\00\00\00", i64 0, i32 0, i32 0 }, %struct.acpi_device_id { [16 x i8] c"INT33C2\00\00\00\00\00\00\00\00\00", i64 0, i32 0, i32 0 }, %struct.acpi_device_id { [16 x i8] c"INT33C3\00\00\00\00\00\00\00\00\00", i64 0, i32 0, i32 0 }, %struct.acpi_device_id { [16 x i8] c"INT33C4\00\00\00\00\00\00\00\00\00", i64 0, i32 0, i32 0 }, %struct.acpi_device_id { [16 x i8] c"INT33C5\00\00\00\00\00\00\00\00\00", i64 0, i32 0, i32 0 }, %struct.acpi_device_id { [16 x i8] c"INT33C6\00\00\00\00\00\00\00\00\00", i64 0, i32 0, i32 0 }, %struct.acpi_device_id { [16 x i8] c"80860F09\00\00\00\00\00\00\00\00", i64 0, i32 0, i32 0 }, %struct.acpi_device_id { [16 x i8] c"80860F0A\00\00\00\00\00\00\00\00", i64 0, i32 0, i32 0 }, %struct.acpi_device_id { [16 x i8] c"80860F0E\00\00\00\00\00\00\00\00", i64 0, i32 0, i32 0 }, %struct.acpi_device_id { [16 x i8] c"80860F14\00\00\00\00\00\00\00\00", i64 0, i32 0, i32 0 }, %struct.acpi_device_id { [16 x i8] c"80860F41\00\00\00\00\00\00\00\00", i64 0, i32 0, i32 0 }, %struct.acpi_device_id { [16 x i8] c"80862286\00\00\00\00\00\00\00\00", i64 0, i32 0, i32 0 }, %struct.acpi_device_id { [16 x i8] c"80862288\00\00\00\00\00\00\00\00", i64 0, i32 0, i32 0 }, %struct.acpi_device_id { [16 x i8] c"80862289\00\00\00\00\00\00\00\00", i64 0, i32 0, i32 0 }, %struct.acpi_device_id { [16 x i8] c"8086228A\00\00\00\00\00\00\00\00", i64 0, i32 0, i32 0 }, %struct.acpi_device_id { [16 x i8] c"8086228E\00\00\00\00\00\00\00\00", i64 0, i32 0, i32 0 }, %struct.acpi_device_id { [16 x i8] c"808622C0\00\00\00\00\00\00\00\00", i64 0, i32 0, i32 0 }, %struct.acpi_device_id { [16 x i8] c"808622C1\00\00\00\00\00\00\00\00", i64 0, i32 0, i32 0 }, %struct.acpi_device_id { [16 x i8] c"INT3430\00\00\00\00\00\00\00\00\00", i64 0, i32 0, i32 0 }, %struct.acpi_device_id { [16 x i8] c"INT3431\00\00\00\00\00\00\00\00\00", i64 0, i32 0, i32 0 }, %struct.acpi_device_id { [16 x i8] c"INT3432\00\00\00\00\00\00\00\00\00", i64 0, i32 0, i32 0 }, %struct.acpi_device_id { [16 x i8] c"INT3433\00\00\00\00\00\00\00\00\00", i64 0, i32 0, i32 0 }, %struct.acpi_device_id { [16 x i8] c"INT3434\00\00\00\00\00\00\00\00\00", i64 0, i32 0, i32 0 }, %struct.acpi_device_id { [16 x i8] c"INT3435\00\00\00\00\00\00\00\00\00", i64 0, i32 0, i32 0 }, %struct.acpi_device_id { [16 x i8] c"INT3436\00\00\00\00\00\00\00\00\00", i64 0, i32 0, i32 0 }, %struct.acpi_device_id { [16 x i8] c"INT3438\00\00\00\00\00\00\00\00\00", i64 0, i32 0, i32 0 }, %struct.acpi_device_id zeroinitializer], align 16

; Function Attrs: cold fn_ret_thunk_extern nounwind null_pointer_is_valid optsize
define dso_local void @acpi_lpss_init() local_unnamed_addr #0 section ".init.text" align 16 {
  %1 = tail call i32 @acpi_scan_add_handler(ptr noundef nonnull @lpss_handler) #2
  ret void
}

; Function Attrs: null_pointer_is_valid
declare dso_local i32 @acpi_scan_add_handler(ptr noundef) local_unnamed_addr #1


!llvm.module.flags = !{!0, !1, !2, !3, !4}

!0 = !{i32 1, !"wchar_size", i32 2}
!1 = !{i32 8, !"cf-protection-branch", i32 1}
!2 = !{i32 4, !"function_return_thunk_extern", i32 1}
!3 = !{i32 4, !"indirect_branch_cs_prefix", i32 1}
!4 = !{i32 4, !"SkipRaxSetup", i32 1}
